target datalayout = "e-m:e-p270:32:32-p271:32:32-p272:64:64-i64:64-i128:128-f80:128-n8:16:32:64-S128"
target triple = "x86_64-pc-linux-gnu"

%"class.llvm::SmallVectorBase" = type { ptr, i32, i32 }
%"class.llvm::SDValue" = type <{ ptr, i32, [4 x i8] }>
%"class.llvm::SmallVectorImpl.116" = type { %"class.llvm::SmallVectorTemplateBase.117" }
%"class.llvm::SmallVectorTemplateBase.117" = type { %"class.llvm::SmallVectorTemplateCommon.118" }
%"class.llvm::SmallVectorTemplateCommon.118" = type { %"class.llvm::SmallVectorBase" }
%"class.llvm::SmallVector.120" = type { %"class.llvm::SmallVectorImpl.116", %"struct.llvm::SmallVectorStorage.121" }
%"struct.llvm::SmallVectorStorage.121" = type { [128 x i8] }
%"class.llvm::SelectionDAGBuilder" = type { ptr, %"class.llvm::DenseMap.362", %"class.llvm::DenseMap.362", %"class.llvm::MapVector", i8, %"class.llvm::SmallVector.120", %"class.llvm::StatepointLoweringState", %"class.llvm::SmallVector.120", %"class.llvm::SmallVector.120", %"class.llvm::SmallVector.120", i32, ptr, ptr, ptr, ptr, ptr, %"class.std::unique_ptr.381", %"class.llvm::StackProtectorDescriptor", %"class.llvm::DenseMap.389", ptr, ptr, ptr, %"class.llvm::DenseMap.392", i8, ptr }
%"class.llvm::DenseMap.362" = type <{ ptr, i32, i32, i32, [4 x i8] }>
%"class.llvm::MapVector" = type { %"class.llvm::DenseMap.365", %"class.llvm::SmallVector.368" }
%"class.llvm::DenseMap.365" = type <{ ptr, i32, i32, i32, [4 x i8] }>
%"class.llvm::SmallVector.368" = type { %"class.llvm::SmallVectorImpl.369" }
%"class.llvm::SmallVectorImpl.369" = type { %"class.llvm::SmallVectorTemplateBase.370" }
%"class.llvm::SmallVectorTemplateBase.370" = type { %"class.llvm::SmallVectorTemplateCommon.371" }
%"class.llvm::SmallVectorTemplateCommon.371" = type { %"class.llvm::SmallVectorBase" }
%"class.llvm::StatepointLoweringState" = type { %"class.llvm::DenseMap.373", %"class.llvm::SmallBitVector", i32, %"class.llvm::SmallVector.376" }
%"class.llvm::DenseMap.373" = type <{ ptr, i32, i32, i32, [4 x i8] }>
%"class.llvm::SmallBitVector" = type { i64 }
%"class.llvm::SmallVector.376" = type { %"class.llvm::SmallVectorImpl.377", %"struct.llvm::SmallVectorStorage.380" }
%"class.llvm::SmallVectorImpl.377" = type { %"class.llvm::SmallVectorTemplateBase.378" }
%"class.llvm::SmallVectorTemplateBase.378" = type { %"class.llvm::SmallVectorTemplateCommon.379" }
%"class.llvm::SmallVectorTemplateCommon.379" = type { %"class.llvm::SmallVectorBase" }
%"struct.llvm::SmallVectorStorage.380" = type { [80 x i8] }
%"class.std::unique_ptr.381" = type { %"struct.std::__uniq_ptr_data.382" }
%"struct.std::__uniq_ptr_data.382" = type { %"class.std::__uniq_ptr_impl.383" }
%"class.std::__uniq_ptr_impl.383" = type { %"class.std::tuple.384" }
%"class.std::tuple.384" = type { %"struct.std::_Tuple_impl.385" }
%"struct.std::_Tuple_impl.385" = type { %"struct.std::_Head_base.388" }
%"struct.std::_Head_base.388" = type { ptr }
%"class.llvm::StackProtectorDescriptor" = type { ptr, ptr, ptr }
%"class.llvm::DenseMap.389" = type <{ ptr, i32, i32, i32, [4 x i8] }>
%"class.llvm::DenseMap.392" = type <{ ptr, i32, i32, i32, [4 x i8] }>
%class.anon.1144 = type { ptr }

; Function Attrs: mustprogress nounwind uwtable
define linkonce_odr hidden noundef ptr @_ZNK4llvm25SmallVectorTemplateCommonINS_7SDValueEvE10getFirstElEv(ptr noundef nonnull align 8 dereferenceable(16) %0) #1 comdat align 2 {
  %2 = alloca ptr, align 8
  store ptr %0, ptr %2, align 8
  %3 = load ptr, ptr %2, align 8
  %4 = getelementptr inbounds i8, ptr %3, i64 16
  ret ptr %4
}

; Function Attrs: mustprogress nounwind uwtable
define linkonce_odr hidden void @_ZN4llvm25SmallVectorTemplateCommonINS_7SDValueEvE8grow_podEmm(ptr noundef nonnull align 8 dereferenceable(16) %0, i64 noundef %1, i64 noundef %2) #1 comdat align 2 {
  %4 = alloca ptr, align 8
  %5 = alloca i64, align 8
  %6 = alloca i64, align 8
  store ptr %0, ptr %4, align 8
  store i64 %1, ptr %5, align 8
  store i64 %2, ptr %6, align 8
  %7 = load ptr, ptr %4, align 8
  %8 = call noundef ptr @_ZNK4llvm25SmallVectorTemplateCommonINS_7SDValueEvE10getFirstElEv(ptr noundef nonnull align 8 dereferenceable(16) %7)
  %9 = load i64, ptr %5, align 8
  %10 = load i64, ptr %6, align 8
  call void @_ZN4llvm15SmallVectorBaseIjE8grow_podEPvmm(ptr noundef nonnull align 8 dereferenceable(16) %7, ptr noundef %8, i64 noundef %9, i64 noundef %10)
  ret void
}

; Function Attrs: mustprogress nounwind uwtable
define linkonce_odr hidden void @_ZN4llvm23SmallVectorTemplateBaseINS_7SDValueELb1EE4growEm(ptr noundef nonnull align 8 dereferenceable(16) %0, i64 noundef %1) #1 comdat align 2 {
  %3 = alloca ptr, align 8
  %4 = alloca i64, align 8
  store ptr %0, ptr %3, align 8
  store i64 %1, ptr %4, align 8
  %5 = load ptr, ptr %3, align 8
  %6 = load i64, ptr %4, align 8
  call void @_ZN4llvm25SmallVectorTemplateCommonINS_7SDValueEvE8grow_podEmm(ptr noundef nonnull align 8 dereferenceable(16) %5, i64 noundef %6, i64 noundef 16)
  ret void
}

; Function Attrs: mustprogress nounwind uwtable
define linkonce_odr hidden noundef ptr @_ZN4llvm25SmallVectorTemplateCommonINS_7SDValueEvE5beginEv(ptr noundef nonnull align 8 dereferenceable(16) %0) #1 comdat align 2 {
  %2 = alloca ptr, align 8
  store ptr %0, ptr %2, align 8
  %3 = load ptr, ptr %2, align 8
  %4 = getelementptr inbounds nuw %"class.llvm::SmallVectorBase", ptr %3, i32 0, i32 0
  %5 = load ptr, ptr %4, align 8
  ret ptr %5
}

; Function Attrs: mustprogress nounwind uwtable
define linkonce_odr hidden noundef ptr @_ZN4llvm25SmallVectorTemplateCommonINS_7SDValueEvE32reserveForParamAndGetAddressImplINS_23SmallVectorTemplateBaseIS1_Lb1EEEEEPKS1_PT_RS6_m(ptr noundef %0, ptr noundef nonnull align 8 dereferenceable(12) %1, i64 noundef %2) #1 comdat align 2 {
  %4 = alloca ptr, align 8
  %5 = alloca ptr, align 8
  %6 = alloca ptr, align 8
  %7 = alloca i64, align 8
  %8 = alloca i64, align 8
  %9 = alloca i8, align 1
  %10 = alloca i64, align 8
  store ptr %0, ptr %5, align 8
  store ptr %1, ptr %6, align 8
  store i64 %2, ptr %7, align 8
  %11 = load ptr, ptr %5, align 8
  %12 = call noundef i64 @_ZNK4llvm15SmallVectorBaseIjE4sizeEv(ptr noundef nonnull align 8 dereferenceable(16) %11)
  %13 = load i64, ptr %7, align 8
  %14 = add i64 %12, %13
  store i64 %14, ptr %8, align 8
  %15 = load i64, ptr %8, align 8
  %16 = load ptr, ptr %5, align 8
  %17 = call noundef i64 @_ZNK4llvm15SmallVectorBaseIjE8capacityEv(ptr noundef nonnull align 8 dereferenceable(16) %16)
  %18 = icmp ule i64 %15, %17
  br i1 %18, label %19, label %21

19:                                               ; preds = %3
  %20 = load ptr, ptr %6, align 8
  store ptr %20, ptr %4, align 8
  br label %35

21:                                               ; preds = %3
  store i8 0, ptr %9, align 1
  store i64 -1, ptr %10, align 8
  %22 = load ptr, ptr %5, align 8
  %23 = load i64, ptr %8, align 8
  call void @_ZN4llvm23SmallVectorTemplateBaseINS_7SDValueELb1EE4growEm(ptr noundef nonnull align 8 dereferenceable(16) %22, i64 noundef %23)
  %24 = load i8, ptr %9, align 1
  %25 = trunc i8 %24 to i1
  br i1 %25, label %26, label %31

26:                                               ; preds = %21
  %27 = load ptr, ptr %5, align 8
  %28 = call noundef ptr @_ZN4llvm25SmallVectorTemplateCommonINS_7SDValueEvE5beginEv(ptr noundef nonnull align 8 dereferenceable(16) %27)
  %29 = load i64, ptr %10, align 8
  %30 = getelementptr inbounds %"class.llvm::SDValue", ptr %28, i64 %29
  br label %33

31:                                               ; preds = %21
  %32 = load ptr, ptr %6, align 8
  br label %33

33:                                               ; preds = %31, %26
  %34 = phi ptr [ %30, %26 ], [ %32, %31 ]
  store ptr %34, ptr %4, align 8
  br label %35

35:                                               ; preds = %33, %19
  %36 = load ptr, ptr %4, align 8
  ret ptr %36
}

; Function Attrs: mustprogress nounwind uwtable
define linkonce_odr hidden noundef ptr @_ZN4llvm25SmallVectorTemplateCommonINS_7SDValueEvE3endEv(ptr noundef nonnull align 8 dereferenceable(16) %0) #1 comdat align 2 {
  %2 = alloca ptr, align 8
  store ptr %0, ptr %2, align 8
  %3 = load ptr, ptr %2, align 8
  %4 = call noundef ptr @_ZN4llvm25SmallVectorTemplateCommonINS_7SDValueEvE5beginEv(ptr noundef nonnull align 8 dereferenceable(16) %3)
  %5 = call noundef i64 @_ZNK4llvm15SmallVectorBaseIjE4sizeEv(ptr noundef nonnull align 8 dereferenceable(16) %3)
  %6 = getelementptr inbounds %"class.llvm::SDValue", ptr %4, i64 %5
  ret ptr %6
}

; Function Attrs: mustprogress nounwind uwtable
define linkonce_odr hidden noundef ptr @_ZN4llvm23SmallVectorTemplateBaseINS_7SDValueELb1EE28reserveForParamAndGetAddressERS1_m(ptr noundef nonnull align 8 dereferenceable(16) %0, ptr noundef nonnull align 8 dereferenceable(12) %1, i64 noundef %2) #1 comdat align 2 {
  %4 = alloca ptr, align 8
  %5 = alloca ptr, align 8
  %6 = alloca i64, align 8
  store ptr %0, ptr %4, align 8
  store ptr %1, ptr %5, align 8
  store i64 %2, ptr %6, align 8
  %7 = load ptr, ptr %4, align 8
  %8 = load ptr, ptr %5, align 8
  %9 = load i64, ptr %6, align 8
  %10 = call noundef ptr @_ZN4llvm25SmallVectorTemplateCommonINS_7SDValueEvE32reserveForParamAndGetAddressImplINS_23SmallVectorTemplateBaseIS1_Lb1EEEEEPKS1_PT_RS6_m(ptr noundef %7, ptr noundef nonnull align 8 dereferenceable(12) %8, i64 noundef %9)
  ret ptr %10
}

; Function Attrs: mustprogress nounwind uwtable
define linkonce_odr hidden void @_ZN4llvm7SDValueC2EPNS_6SDNodeEj(ptr noundef nonnull align 8 dereferenceable(12) %0, ptr noundef %1, i32 noundef %2) unnamed_addr #1 comdat align 2 {
  %4 = alloca ptr, align 8
  %5 = alloca ptr, align 8
  %6 = alloca i32, align 4
  store ptr %0, ptr %4, align 8
  store ptr %1, ptr %5, align 8
  store i32 %2, ptr %6, align 4
  %7 = load ptr, ptr %4, align 8
  %8 = getelementptr inbounds nuw %"class.llvm::SDValue", ptr %7, i32 0, i32 0
  %9 = load ptr, ptr %5, align 8
  store ptr %9, ptr %8, align 8
  %10 = getelementptr inbounds nuw %"class.llvm::SDValue", ptr %7, i32 0, i32 1
  %11 = load i32, ptr %6, align 4
  store i32 %11, ptr %10, align 8
  ret void
}

; Function Attrs: mustprogress nounwind uwtable
define linkonce_odr hidden void @_ZN4llvm23SmallVectorTemplateBaseINS_7SDValueELb1EE9push_backES1_(ptr noundef nonnull align 8 dereferenceable(16) %0, ptr %1, i32 %2) #1 comdat align 2 {
  %4 = alloca %"class.llvm::SDValue", align 8
  %5 = alloca ptr, align 8
  %6 = alloca ptr, align 8
  %7 = getelementptr inbounds nuw { ptr, i32 }, ptr %4, i32 0, i32 0
  store ptr %1, ptr %7, align 8
  %8 = getelementptr inbounds nuw { ptr, i32 }, ptr %4, i32 0, i32 1
  store i32 %2, ptr %8, align 8
  store ptr %0, ptr %5, align 8
  %9 = load ptr, ptr %5, align 8
  %10 = call noundef ptr @_ZN4llvm23SmallVectorTemplateBaseINS_7SDValueELb1EE28reserveForParamAndGetAddressERS1_m(ptr noundef nonnull align 8 dereferenceable(16) %9, ptr noundef nonnull align 8 dereferenceable(12) %4, i64 noundef 1)
  store ptr %10, ptr %6, align 8
  %11 = call noundef ptr @_ZN4llvm25SmallVectorTemplateCommonINS_7SDValueEvE3endEv(ptr noundef nonnull align 8 dereferenceable(16) %9)
  %12 = load ptr, ptr %6, align 8
  call void @llvm.memcpy.p0.p0.i64(ptr align 1 %11, ptr align 8 %12, i64 16, i1 false)
  %13 = call noundef i64 @_ZNK4llvm15SmallVectorBaseIjE4sizeEv(ptr noundef nonnull align 8 dereferenceable(16) %9)
  %14 = add i64 %13, 1
  call void @_ZN4llvm15SmallVectorBaseIjE8set_sizeEm(ptr noundef nonnull align 8 dereferenceable(16) %9, i64 noundef %14)
  ret void
}

; Function Attrs: mustprogress nounwind uwtable
define linkonce_odr hidden { ptr, i32 } @_ZNK4llvm7SDValue8getValueEj(ptr noundef nonnull align 8 dereferenceable(12) %0, i32 noundef %1) #1 comdat align 2 {
  %3 = alloca %"class.llvm::SDValue", align 8
  %4 = alloca ptr, align 8
  %5 = alloca i32, align 4
  store ptr %0, ptr %4, align 8
  store i32 %1, ptr %5, align 4
  %6 = load ptr, ptr %4, align 8
  %7 = getelementptr inbounds nuw %"class.llvm::SDValue", ptr %6, i32 0, i32 0
  %8 = load ptr, ptr %7, align 8
  %9 = load i32, ptr %5, align 4
  call void @_ZN4llvm7SDValueC2EPNS_6SDNodeEj(ptr noundef nonnull align 8 dereferenceable(12) %3, ptr noundef %8, i32 noundef %9)
  %10 = load { ptr, i32 }, ptr %3, align 8
  ret { ptr, i32 } %10
}

; Function Attrs: mustprogress nounwind uwtable
define internal void @"_ZZN4llvm19SelectionDAGBuilder27visitConstrainedFPIntrinsicERKNS_22ConstrainedFPIntrinsicEENK3$_0clENS_7SDValueENS_2fp17ExceptionBehaviorE"(ptr noundef nonnull align 8 dereferenceable(8) %0, ptr %1, i32 %2, i8 noundef zeroext %3) #1 align 2 {
  %5 = alloca %"class.llvm::SDValue", align 8
  %6 = alloca ptr, align 8
  %7 = alloca i8, align 1
  %8 = alloca %"class.llvm::SDValue", align 8
  %9 = alloca { ptr, i32 }, align 8
  %10 = alloca %"class.llvm::SDValue", align 8
  %11 = alloca %"class.llvm::SDValue", align 8
  %12 = getelementptr inbounds nuw { ptr, i32 }, ptr %5, i32 0, i32 0
  store ptr %1, ptr %12, align 8
  %13 = getelementptr inbounds nuw { ptr, i32 }, ptr %5, i32 0, i32 1
  store i32 %2, ptr %13, align 8
  store ptr %0, ptr %6, align 8
  store i8 %3, ptr %7, align 1
  %14 = load ptr, ptr %6, align 8
  %15 = getelementptr inbounds nuw %class.anon.1144, ptr %14, i32 0, i32 0
  %16 = load ptr, ptr %15, align 8
  %17 = call { ptr, i32 } @_ZNK4llvm7SDValue8getValueEj(ptr noundef nonnull align 8 dereferenceable(12) %5, i32 noundef 1)
  store { ptr, i32 } %17, ptr %9, align 8
  call void @llvm.memcpy.p0.p0.i64(ptr align 8 %8, ptr align 8 %9, i64 12, i1 false)
  %18 = load i8, ptr %7, align 1
  %19 = zext i8 %18 to i32
  switch i32 %19, label %33 [
    i32 0, label %20
    i32 1, label %21
    i32 2, label %27
  ]

20:                                               ; preds = %4
  br label %21

21:                                               ; preds = %20, %4
  %22 = getelementptr inbounds nuw %"class.llvm::SelectionDAGBuilder", ptr %16, i32 0, i32 8
  call void @llvm.memcpy.p0.p0.i64(ptr align 8 %10, ptr align 8 %8, i64 16, i1 false)
  %23 = getelementptr inbounds nuw { ptr, i32 }, ptr %10, i32 0, i32 0
  %24 = load ptr, ptr %23, align 8
  %25 = getelementptr inbounds nuw { ptr, i32 }, ptr %10, i32 0, i32 1
  %26 = load i32, ptr %25, align 8
  call void @_ZN4llvm23SmallVectorTemplateBaseINS_7SDValueELb1EE9push_backES1_(ptr noundef nonnull align 8 dereferenceable(16) %22, ptr %24, i32 %26)
  br label %33

27:                                               ; preds = %4
  %28 = getelementptr inbounds nuw %"class.llvm::SelectionDAGBuilder", ptr %16, i32 0, i32 9
  call void @llvm.memcpy.p0.p0.i64(ptr align 8 %11, ptr align 8 %8, i64 16, i1 false)
  %29 = getelementptr inbounds nuw { ptr, i32 }, ptr %11, i32 0, i32 0
  %30 = load ptr, ptr %29, align 8
  %31 = getelementptr inbounds nuw { ptr, i32 }, ptr %11, i32 0, i32 1
  %32 = load i32, ptr %31, align 8
  call void @_ZN4llvm23SmallVectorTemplateBaseINS_7SDValueELb1EE9push_backES1_(ptr noundef nonnull align 8 dereferenceable(16) %28, ptr %30, i32 %32)
  br label %33

33:                                               ; preds = %27, %21, %4
  ret void
}