; Function Attrs: mustprogress nounwind uwtable
define internal fastcc void @"_ZZN4llvm19SelectionDAGBuilder27visitConstrainedFPIntrinsicERKNS_22ConstrainedFPIntrinsicEENK3$_0clENS_7SDValueENS_2fp17ExceptionBehaviorE"(ptr %.0.val, ptr %0, i8 noundef zeroext %1) unnamed_addr #0 align 2 {
  switch i8 %1, label %22 [
    i8 0, label %3
    i8 1, label %3
    i8 2, label %10
  ]

3:                                                ; preds = %2, %2
  %4 = getelementptr inbounds nuw i8, ptr %.0.val, i64 528
  %5 = tail call noundef i64 @_ZNK4llvm15SmallVectorBaseIjE4sizeEv(ptr noundef nonnull align 8 dereferenceable(16) %4) #32
  %6 = add i64 %5, 1
  %7 = tail call noundef i64 @_ZNK4llvm15SmallVectorBaseIjE8capacityEv(ptr noundef nonnull align 8 dereferenceable(16) %4) #32
  %.not.i.i.i = icmp ugt i64 %6, %7
  br i1 %.not.i.i.i, label %8, label %.sink.split

8:                                                ; preds = %3
  %9 = getelementptr inbounds i8, ptr %.0.val, i64 544
  tail call void @_ZN4llvm15SmallVectorBaseIjE8grow_podEPvmm(ptr noundef nonnull align 8 dereferenceable(16) %4, ptr noundef nonnull %9, i64 noundef %6, i64 noundef 16) #32
  br label %.sink.split

10:                                               ; preds = %2
  %11 = getelementptr inbounds nuw i8, ptr %.0.val, i64 672
  %12 = tail call noundef i64 @_ZNK4llvm15SmallVectorBaseIjE4sizeEv(ptr noundef nonnull align 8 dereferenceable(16) %11) #32
  %13 = add i64 %12, 1
  %14 = tail call noundef i64 @_ZNK4llvm15SmallVectorBaseIjE8capacityEv(ptr noundef nonnull align 8 dereferenceable(16) %11) #32
  %.not.i.i.i10 = icmp ugt i64 %13, %14
  br i1 %.not.i.i.i10, label %15, label %.sink.split

15:                                               ; preds = %10
  %16 = getelementptr inbounds i8, ptr %.0.val, i64 688
  tail call void @_ZN4llvm15SmallVectorBaseIjE8grow_podEPvmm(ptr noundef nonnull align 8 dereferenceable(16) %11, ptr noundef nonnull %16, i64 noundef %13, i64 noundef 16) #32
  br label %.sink.split

.sink.split:                                      ; preds = %15, %10, %8, %3
  %.sink9 = phi ptr [ %4, %3 ], [ %4, %8 ], [ %11, %10 ], [ %11, %15 ]
  %17 = load ptr, ptr %.sink9, align 8
  %18 = tail call noundef i64 @_ZNK4llvm15SmallVectorBaseIjE4sizeEv(ptr noundef nonnull align 8 dereferenceable(16) %.sink9) #32
  %19 = getelementptr inbounds %"class.llvm::SDValue", ptr %17, i64 %18
  store ptr %0, ptr %19, align 1
  %.sroa.2.0..sroa_idx.i11 = getelementptr inbounds i8, ptr %19, i64 8
  store i32 1, ptr %.sroa.2.0..sroa_idx.i11, align 1
  %20 = tail call noundef i64 @_ZNK4llvm15SmallVectorBaseIjE4sizeEv(ptr noundef nonnull align 8 dereferenceable(16) %.sink9) #32
  %21 = add i64 %20, 1
  tail call void @_ZN4llvm15SmallVectorBaseIjE8set_sizeEm(ptr noundef nonnull align 8 dereferenceable(16) %.sink9, i64 noundef %21) #32
  br label %22

22:                                               ; preds = %.sink.split, %2
  ret void
}